target datalayout = "e-m:e-p270:32:32-p271:32:32-p272:64:64-i64:64-i128:128-f80:128-n8:16:32:64-S128"
target triple = "x86_64-pc-linux-gnu"

%struct._zend_phpdbg_globals = type { [11 x %struct._zend_array], %struct._zend_array, %struct._zend_array, ptr, ptr, %struct.phpdbg_frame_t, i32, ptr, %struct.phpdbg_lexer_data, ptr, %struct.sigaction, i32, i64, %struct.phpdbg_btree, %struct.phpdbg_btree, %struct._zend_array, %struct._zend_array, %struct._zend_array, %struct._zend_array, ptr, ptr, i8, ptr, ptr, ptr, i64, ptr, %struct._zval_struct, i32, i32, i8, i8, ptr, ptr, ptr, %struct._zend_array, ptr, ptr, ptr, [3 x %struct.anon.8], ptr, %struct.anon.9, i64, [2 x ptr], [3 x ptr], ptr, i8, ptr, ptr, [500 x i8], i32, %struct.phpdbg_signal_safe_mem, ptr, i64, ptr, i64 }
%struct.phpdbg_frame_t = type { i32, ptr, ptr }
%struct.phpdbg_lexer_data = type { i32, ptr, ptr, ptr, ptr, i32 }
%struct.sigaction = type { %union.anon.2, %struct.__sigset_t, i32, ptr }
%union.anon.2 = type { ptr }
%struct.__sigset_t = type { [16 x i64] }
%struct.phpdbg_btree = type { i64, i64, i8, ptr }
%struct._zval_struct = type { %union._zend_value, %union.anon.4, %union.anon.7 }
%union._zend_value = type { i64 }
%union.anon.4 = type { i32 }
%union.anon.7 = type { i32 }
%struct._zend_array = type { %struct._zend_refcounted_h, %union.anon.0, i32, %union.anon.1, i32, i32, i32, i32, i64, ptr }
%struct._zend_refcounted_h = type { i32, %union.anon }
%union.anon = type { i32 }
%union.anon.0 = type { i32 }
%union.anon.1 = type { ptr }
%struct.anon.8 = type { i32 }
%struct.anon.9 = type { i8, i32, i32, ptr, i32 }
%struct.phpdbg_signal_safe_mem = type { ptr, i8, ptr, ptr }
%struct._Bucket = type { %struct._zval_struct, i64, ptr }

@phpdbg_globals = external global %struct._zend_phpdbg_globals, align 8

; Function Attrs: nounwind uwtable
define void @phpdbg_resolve_pending_file_break(ptr noundef %0) #0 {
  %2 = alloca ptr, align 8
  %3 = alloca ptr, align 8
  %4 = alloca ptr, align 8
  %5 = alloca i32, align 4
  %6 = alloca ptr, align 8
  %7 = alloca ptr, align 8
  %8 = alloca ptr, align 8
  %9 = alloca ptr, align 8
  %10 = alloca ptr, align 8
  store ptr %0, ptr %3, align 8
  %11 = load ptr, ptr %3, align 8
  %12 = call i64 @strlen(ptr noundef %11) #10
  %13 = trunc i64 %12 to i32
  store i32 %13, ptr %5, align 4
  br label %14

14:                                               ; preds = %1
  store ptr getelementptr inbounds ([11 x %struct._zend_array], ptr @phpdbg_globals, i64 0, i64 1), ptr %7, align 8
  %15 = load ptr, ptr %7, align 8
  %16 = getelementptr inbounds %struct._zend_array, ptr %15, i32 0, i32 3
  %17 = load ptr, ptr %16, align 8
  %18 = getelementptr inbounds %struct._Bucket, ptr %17, i64 0
  store ptr %18, ptr %8, align 8
  %19 = load ptr, ptr %7, align 8
  %20 = getelementptr inbounds %struct._zend_array, ptr %19, i32 0, i32 3
  %21 = load ptr, ptr %20, align 8
  %22 = load ptr, ptr %7, align 8
  %23 = getelementptr inbounds %struct._zend_array, ptr %22, i32 0, i32 4
  %24 = load i32, ptr %23, align 8
  %25 = zext i32 %24 to i64
  %26 = getelementptr inbounds %struct._Bucket, ptr %21, i64 %25
  store ptr %26, ptr %9, align 8
  %27 = load ptr, ptr %7, align 8
  %28 = getelementptr inbounds %struct._zend_array, ptr %27, i32 0, i32 1
  %29 = load i32, ptr %28, align 8
  %30 = and i32 %29, 4
  %31 = icmp ne i32 %30, 0
  %32 = xor i1 %31, true
  call void @llvm.assume(i1 %32)
  br label %33

33:                                               ; preds = %64, %14
  %34 = load ptr, ptr %8, align 8
  %35 = load ptr, ptr %9, align 8
  %36 = icmp ne ptr %34, %35
  br i1 %36, label %37, label %67

37:                                               ; preds = %33
  %38 = load ptr, ptr %8, align 8
  %39 = getelementptr inbounds %struct._Bucket, ptr %38, i32 0, i32 0
  store ptr %39, ptr %10, align 8
  %40 = load ptr, ptr %10, align 8
  store ptr %40, ptr %2, align 8
  %41 = load ptr, ptr %2, align 8
  %42 = getelementptr inbounds %struct._zval_struct, ptr %41, i32 0, i32 1
  %43 = load i8, ptr %42, align 8
  %44 = zext i8 %43 to i32
  %45 = icmp eq i32 %44, 0
  %46 = xor i1 %45, true
  %47 = xor i1 %46, true
  %48 = zext i1 %47 to i32
  %49 = sext i32 %48 to i64
  %50 = icmp ne i64 %49, 0
  br i1 %50, label %51, label %52

51:                                               ; preds = %37
  br label %64

52:                                               ; preds = %37
  %53 = load ptr, ptr %8, align 8
  %54 = getelementptr inbounds %struct._Bucket, ptr %53, i32 0, i32 2
  %55 = load ptr, ptr %54, align 8
  store ptr %55, ptr %6, align 8
  %56 = load ptr, ptr %10, align 8
  %57 = getelementptr inbounds %struct._zval_struct, ptr %56, i32 0, i32 0
  %58 = load ptr, ptr %57, align 8
  store ptr %58, ptr %4, align 8
  %59 = load ptr, ptr %3, align 8
  %60 = load i32, ptr %5, align 4
  %61 = load ptr, ptr %6, align 8
  %62 = load ptr, ptr %4, align 8
  %63 = call ptr @phpdbg_resolve_pending_file_break_ex(ptr noundef %59, i32 noundef %60, ptr noundef %61, ptr noundef %62)
  br label %64

64:                                               ; preds = %52, %51
  %65 = load ptr, ptr %8, align 8
  %66 = getelementptr inbounds %struct._Bucket, ptr %65, i32 1
  store ptr %66, ptr %8, align 8
  br label %33

67:                                               ; preds = %33
  br label %68

68:                                               ; preds = %67
  ret void
}