; Function Attrs: nounwind uwtable
define void @phpdbg_resolve_pending_file_break(ptr noundef %0) local_unnamed_addr #1 {
  %2 = tail call i64 @strlen(ptr noundef nonnull dereferenceable(1) %0) #15
  %3 = trunc i64 %2 to i32
  %4 = load ptr, ptr getelementptr inbounds (%struct._zend_phpdbg_globals, ptr @phpdbg_globals, i64 0, i32 0, i64 1, i32 3), align 8
  %5 = load i32, ptr getelementptr inbounds (%struct._zend_phpdbg_globals, ptr @phpdbg_globals, i64 0, i32 0, i64 1, i32 4), align 8
  %6 = zext i32 %5 to i64
  %7 = getelementptr inbounds %struct._Bucket, ptr %4, i64 %6
  %8 = load i32, ptr getelementptr inbounds (%struct._zend_phpdbg_globals, ptr @phpdbg_globals, i64 0, i32 0, i64 1, i32 1), align 8
  %9 = and i32 %8, 4
  %.not = icmp eq i32 %9, 0
  tail call void @llvm.assume(i1 %.not)
  %.not1617 = icmp eq i32 %5, 0
  br i1 %.not1617, label %._crit_edge, label %.lr.ph

.lr.ph:                                           ; preds = %1, %18
  %.018 = phi ptr [ %19, %18 ], [ %4, %1 ]
  %10 = getelementptr inbounds i8, ptr %.018, i64 8
  %11 = load i8, ptr %10, align 8
  %12 = icmp eq i8 %11, 0
  br i1 %12, label %18, label %13

13:                                               ; preds = %.lr.ph
  %14 = getelementptr inbounds i8, ptr %.018, i64 24
  %15 = load ptr, ptr %14, align 8
  %16 = load ptr, ptr %.018, align 8
  %17 = tail call ptr @phpdbg_resolve_pending_file_break_ex(ptr noundef %0, i32 noundef %3, ptr noundef %15, ptr noundef %16)
  br label %18

18:                                               ; preds = %.lr.ph, %13
  %19 = getelementptr inbounds i8, ptr %.018, i64 32
  %.not16 = icmp eq ptr %19, %7
  br i1 %.not16, label %._crit_edge, label %.lr.ph

._crit_edge:                                      ; preds = %18, %1
  ret void
}